; Function Attrs: mustprogress nounwind uwtable
define hidden void @_ZN9VM_Verify4doitEv(ptr nocapture nonnull readnone align 8 %0) unnamed_addr #0 align 2 {
  %2 = load ptr, ptr @_ZN8Universe14_collectedHeapE, align 8
  %3 = load ptr, ptr %2, align 8
  %4 = getelementptr inbounds i8, ptr %3, i64 280
  %5 = load ptr, ptr %4, align 8
  tail call void %5(ptr noundef nonnull align 8 dereferenceable(104) %2) #12
  tail call void @_ZN8Universe6verifyE12VerifyOptionPKc(i32 noundef 0, ptr noundef nonnull @.str.13) #12
  ret void
}